Certificate:
    Data:
        Version: 1 (0x0)
        Serial Number: 4104 (0x1008)
    Signature Algorithm: sha256WithRSAEncryption
        Issuer: C=PT, ST=Porto, O=CNCS, CN=Intermediate CA
        Validity
            Not Before: Apr 11 16:40:36 2025 GMT
            Not After : Apr 11 16:40:36 2026 GMT
        Subject: CN=revoked-client
        Subject Public Key Info:
            Public Key Algorithm: rsaEncryption
                RSA Public-Key: (2048 bit)
                Modulus:
                    00:cd:cf:6a:c3:53:64:2d:56:0f:ae:73:c3:39:39:
                    1f:1d:03:1e:d2:a2:66:10:8f:60:c5:da:c9:fe:f4:
                    e0:e5:9b:1a:d3:3b:68:4f:d8:ce:77:2c:08:66:3f:
                    38:ac:1b:b7:c9:52:af:fa:a8:a8:84:80:84:67:6e:
                    d1:41:12:c2:15:f3:2b:6e:83:a5:6b:e4:57:7d:a8:
                    b3:70:34:b1:3f:87:f0:82:55:a5:f5:25:bf:90:1e:
                    a2:ec:15:16:33:a6:cc:4e:81:5e:70:0c:fa:3f:fd:
                    64:28:79:73:a7:45:63:8b:6c:43:dc:6f:3e:57:b2:
                    a5:bc:18:ac:5f:ef:ae:15:a5:f0:aa:dc:2b:f8:b5:
                    04:37:87:5a:ea:9f:08:70:3f:57:a2:71:8a:f3:f3:
                    2a:2a:3c:37:f7:15:25:2f:b0:7c:51:8e:96:5b:87:
                    a6:fc:c7:98:2a:a9:40:6f:c2:57:20:4d:7c:18:ef:
                    20:93:fe:54:ab:d0:7a:fa:37:94:08:e8:8e:32:be:
                    93:2a:24:f2:86:8a:bd:c1:4a:fc:cd:56:76:38:b9:
                    b1:85:cf:18:dd:9e:c8:91:9d:dc:0a:47:48:0d:25:
                    76:ca:34:c8:1b:de:2c:73:91:d3:d5:3e:0c:eb:39:
                    4d:97:1f:c9:c6:f9:10:ee:38:dc:1d:af:12:4f:5e:
                    15:73
                Exponent: 65537 (0x10001)
    Signature Algorithm: sha256WithRSAEncryption
         01:1a:c8:d4:87:5f:df:6c:45:56:47:2d:c6:9f:15:81:f9:a4:
         2c:a4:a1:8e:1c:32:14:be:3e:3f:e9:c9:99:4a:4d:4f:b9:11:
         d3:3f:e3:8d:22:84:11:c0:e5:a9:ad:c2:fd:65:3f:71:82:14:
         25:67:1c:dd:09:06:78:b3:60:dc:7e:7d:ca:38:81:b7:d7:8f:
         22:3c:74:2f:99:17:01:e6:e1:4b:4f:38:c0:a5:17:c6:27:27:
         05:88:d1:05:2f:07:7f:24:59:21:18:23:01:3f:c6:b8:bc:6a:
         2a:f9:61:6b:32:04:42:20:5c:5f:6a:21:3e:de:35:4d:ee:de:
         4d:78:72:97:ab:ec:3f:cb:00:27:06:e2:d6:3f:a9:1d:80:8d:
         9f:72:9c:e6:4a:94:1a:b2:3f:7b:74:04:62:74:0b:a5:72:72:
         21:cc:ff:b4:a3:1a:42:0d:d4:48:f7:83:0d:28:38:6c:d8:ad:
         0b:10:bf:c0:d2:80:eb:69:5d:58:93:28:27:9d:5b:63:ed:46:
         af:bf:e1:ea:13:cb:d6:cc:9c:af:43:71:ac:10:45:bc:3c:5e:
         46:4a:69:93:54:0b:be:f0:3b:99:30:b5:70:09:e5:37:d1:97:
         f7:fb:7a:a2:a7:41:7d:2d:5e:ce:a8:cc:40:a9:c8:b3:3c:68:
         9d:b2:e7:ec:0b:a5:81:79:19:13:22:c6:3a:4e:33:a2:64:d6:
         d6:e5:72:63:36:7a:f3:2c:cf:69:4b:e0:69:49:6f:e6:42:2a:
         f6:73:d1:65:ac:89:7f:09:f4:17:88:c2:67:ea:12:4a:2b:21:
         03:2a:bc:9e:6f:9e:96:b8:08:06:f1:65:d8:7c:bc:a8:03:36:
         1c:3e:e6:40:29:d3:b9:01:70:a2:b8:af:4d:fb:5c:d9:1c:99:
         09:b2:80:d1:58:bc:52:a3:88:71:61:69:ba:1b:8c:9f:30:23:
         fb:a4:e5:18:24:fa:eb:40:59:b2:39:4a:5f:ca:5d:d4:88:96:
         a7:62:4e:7e:77:8d:bb:72:fc:1d:81:68:17:04:6f:cd:ab:6d:
         84:a4:26:01:31:c8:61:16:f8:82:23:22:37:5d:1e:0b:53:00:
         38:ad:c6:45:c3:86:22:1d:56:c3:bf:63:b9:4e:b7:5a:28:a9:
         d9:cb:f6:b9:5f:4b:07:85:f9:99:d5:90:9f:1b:60:9a:31:ad:
         85:17:c0:12:9a:f1:f3:f5:4a:3f:ad:5c:5d:4c:a1:91:3f:9c:
         39:5b:91:0d:27:44:21:cc:5d:a2:05:0d:30:4e:93:68:ae:32:
         e7:79:d0:40:2a:8d:57:91:63:70:3f:63:57:52:bb:03:a3:c7:
         21:18:34:9a:e1:e0:50:76
-----BEGIN CERTIFICATE-----
MIID1DCCAbwCAhAIMA0GCSqGSIb3DQEBCwUAMEYxCzAJBgNVBAYTAlBUMQ4wDAYD
VQQIDAVQb3J0bzENMAsGA1UECgwEQ05DUzEYMBYGA1UEAwwPSW50ZXJtZWRpYXRl
IENBMB4XDTI1MDQxMTE2NDAzNloXDTI2MDQxMTE2NDAzNlowGTEXMBUGA1UEAwwO
cmV2b2tlZC1jbGllbnQwggEiMA0GCSqGSIb3DQEBAQUAA4IBDwAwggEKAoIBAQDN
z2rDU2QtVg+uc8M5OR8dAx7SomYQj2DF2sn+9ODlmxrTO2hP2M53LAhmPzisG7fJ
Uq/6qKiEgIRnbtFBEsIV8ytug6Vr5Fd9qLNwNLE/h/CCVaX1Jb+QHqLsFRYzpsxO
gV5wDPo//WQoeXOnRWOLbEPcbz5XsqW8GKxf764VpfCq3Cv4tQQ3h1rqnwhwP1ei
cYrz8yoqPDf3FSUvsHxRjpZbh6b8x5gqqUBvwlcgTXwY7yCT/lSr0Hr6N5QI6I4y
vpMqJPKGir3BSvzNVnY4ubGFzxjdnsiRndwKR0gNJXbKNMgb3ixzkdPVPgzrOU2X
H8nG+RDuONwdrxJPXhVzAgMBAAEwDQYJKoZIhvcNAQELBQADggIBAAEayNSHX99s
RVZHLcafFYH5pCykoY4cMhS+Pj/pyZlKTU+5EdM/440ihBHA5amtwv1lP3GCFCVn
HN0JBnizYNx+fco4gbfXjyI8dC+ZFwHm4UtPOMClF8YnJwWI0QUvB38kWSEYIwE/
xri8air5YWsyBEIgXF9qIT7eNU3u3k14cper7D/LACcG4tY/qR2AjZ9ynOZKlBqy
P3t0BGJ0C6VyciHM/7SjGkIN1Ej3gw0oOGzYrQsQv8DSgOtpXViTKCedW2PtRq+/
4eoTy9bMnK9DcawQRbw8XkZKaZNUC77wO5kwtXAJ5TfRl/f7eqKnQX0tXs6ozECp
yLM8aJ2y5+wLpYF5GRMixjpOM6Jk1tblcmM2evMsz2lL4GlJb+ZCKvZz0WWsiX8J
9BeIwmfqEkorIQMqvJ5vnpa4CAbxZdh8vKgDNhw+5kAp07kBcKK4r037XNkcmQmy
gNFYvFKjiHFhabobjJ8wI/uk5Rgk+utAWbI5Sl/KXdSIlqdiTn53jbty/B2BaBcE
b82rbYSkJgExyGEW+IIjIjddHgtTADitxkXDhiIdVsO/Y7lOt1ooqdnL9rlfSweF
+ZnVkJ8bYJoxrYUXwBKa8fP1Sj+tXF1MoZE/nDlbkQ0nRCHMXaIFDTBOk2iuMud5
0EAqjVeRY3A/Y1dSuwOjxyEYNJrh4FB2
-----END CERTIFICATE-----
