Certificate:
    Data:
        Version: 3 (0x2)
        Serial Number: 4096 (0x1000)
    Signature Algorithm: sha256WithRSAEncryption
        Issuer: C=PT, ST=Douro, L=Porto, O=ISEP, OU=Intermediate CA, CN=Intermediate CA for ISEP/emailAddress=intermediateca@isep.ipp.pt
        Validity
            Not Before: Apr  9 18:39:01 2025 GMT
            Not After : Apr  9 18:39:01 2026 GMT
        Subject: CN=testuser.example.com, C=US, ST=California, L=San Francisco, O=Test Organization, OU=IT Department/emailAddress=testuser@example.com
        Subject Public Key Info:
            Public Key Algorithm: rsaEncryption
                RSA Public-Key: (2048 bit)
                Modulus:
                    00:ba:83:b3:25:ed:b1:94:35:11:53:0f:80:8d:9c:
                    4d:39:ff:49:6b:20:e2:f1:04:c7:28:59:95:7d:b2:
                    1c:e2:5b:ce:33:f1:7f:31:53:23:15:e3:cc:63:3d:
                    2b:78:27:6f:6c:f7:53:2e:85:34:18:5d:a5:4c:e6:
                    b9:88:6b:49:da:73:d9:b5:76:60:ac:d4:34:7f:3c:
                    c1:61:32:85:a8:85:ae:04:9f:a5:84:67:db:e8:9e:
                    3c:ef:f4:16:94:ff:3c:b9:cf:43:5d:fd:ce:7a:9b:
                    58:b0:56:88:bd:57:6d:c1:49:49:9b:d3:5f:b5:17:
                    dc:0c:bb:8d:08:c5:b6:c0:1d:08:76:89:b9:45:ef:
                    1d:5a:36:f2:0e:70:35:ee:07:5e:1d:42:8d:96:33:
                    a0:f3:10:a0:d7:d2:cf:0a:c9:76:60:e8:f8:c7:15:
                    b2:f3:26:3c:11:27:7f:cc:d3:9e:a0:97:6a:ed:d2:
                    ae:6a:26:e9:b3:66:45:db:b0:f7:7e:7d:e8:c0:48:
                    7e:7c:61:52:e9:b9:29:01:2b:5a:2c:da:a4:51:45:
                    83:9e:a8:18:ea:83:e2:1e:a3:71:96:f2:60:ee:f1:
                    ba:86:29:a9:28:3a:b1:79:de:84:49:ea:b3:46:48:
                    e5:b7:27:5c:02:91:dd:c1:be:bb:ec:65:7c:bd:6a:
                    47:57
                Exponent: 65537 (0x10001)
        X509v3 extensions:
            X509v3 Basic Constraints: 
                CA:FALSE
            Netscape Cert Type: 
                SSL Client, S/MIME
            X509v3 Key Usage: 
                Digital Signature, Key Encipherment
            X509v3 Extended Key Usage: 
                TLS Web Client Authentication, E-mail Protection
            X509v3 Subject Key Identifier: 
                08:8A:57:5A:7A:C0:5C:10:A1:65:14:46:12:25:04:33:78:F4:2B:C5
            X509v3 Authority Key Identifier: 
                keyid:F7:C2:D1:96:A6:C3:62:A5:31:65:D3:C8:B7:55:91:6D:0D:3E:89:50

    Signature Algorithm: sha256WithRSAEncryption
         9c:ac:e7:c9:ee:80:3a:20:fa:67:f0:c8:26:cf:61:7c:89:5d:
         db:7b:79:e3:e1:14:a4:8a:46:4f:73:e6:02:40:be:54:e4:29:
         91:2d:55:16:1d:52:46:10:c7:da:57:de:ed:05:f1:28:54:af:
         71:aa:e2:36:17:00:71:b7:2e:b7:1a:cf:91:b8:89:90:2d:4d:
         36:67:bd:c5:d6:78:12:1a:ad:2b:fd:50:08:ca:5f:ac:f6:3d:
         e8:9f:b5:89:41:c9:da:c2:7e:dd:0a:df:48:c0:f4:cd:5c:ba:
         16:a3:21:3a:0c:24:33:4e:99:b7:30:16:73:f1:e5:a4:37:75:
         90:82:f9:00:b0:45:b0:58:1f:df:95:69:9a:12:3a:08:06:f5:
         7c:b5:c2:0c:b5:cf:f2:83:43:32:8b:14:c4:e6:6c:12:14:40:
         ce:35:b3:28:30:34:c9:a7:52:c4:ab:f8:f5:72:4b:6b:1c:d9:
         af:5c:aa:64:f9:12:db:f4:6f:ce:dc:97:1c:fe:47:58:f0:69:
         e3:93:c3:64:63:25:be:83:03:ba:6e:ca:88:93:72:05:e2:ee:
         7b:ca:2b:d1:0d:b3:00:99:94:5b:02:1a:9f:9a:eb:6b:2b:21:
         48:44:1e:62:5d:f5:e4:f0:ce:60:b6:c7:e3:4d:5f:17:e7:93:
         54:74:b1:9b
-----BEGIN CERTIFICATE-----
MIIEYjCCA0qgAwIBAgICEAAwDQYJKoZIhvcNAQELBQAwgaQxCzAJBgNVBAYTAlBU
MQ4wDAYDVQQIDAVEb3VybzEOMAwGA1UEBwwFUG9ydG8xDTALBgNVBAoMBElTRVAx
GDAWBgNVBAsMD0ludGVybWVkaWF0ZSBDQTEhMB8GA1UEAwwYSW50ZXJtZWRpYXRl
IENBIGZvciBJU0VQMSkwJwYJKoZIhvcNAQkBFhppbnRlcm1lZGlhdGVjYUBpc2Vw
LmlwcC5wdDAeFw0yNTA0MDkxODM5MDFaFw0yNjA0MDkxODM5MDFaMIGyMR0wGwYD
VQQDDBR0ZXN0dXNlci5leGFtcGxlLmNvbTELMAkGA1UEBhMCVVMxEzARBgNVBAgM
CkNhbGlmb3JuaWExFjAUBgNVBAcMDVNhbiBGcmFuY2lzY28xGjAYBgNVBAoMEVRl
c3QgT3JnYW5pemF0aW9uMRYwFAYDVQQLDA1JVCBEZXBhcnRtZW50MSMwIQYJKoZI
hvcNAQkBFhR0ZXN0dXNlckBleGFtcGxlLmNvbTCCASIwDQYJKoZIhvcNAQEBBQAD
ggEPADCCAQoCggEBALqDsyXtsZQ1EVMPgI2cTTn/SWsg4vEExyhZlX2yHOJbzjPx
fzFTIxXjzGM9K3gnb2z3Uy6FNBhdpUzmuYhrSdpz2bV2YKzUNH88wWEyhaiFrgSf
pYRn2+iePO/0FpT/PLnPQ139znqbWLBWiL1XbcFJSZvTX7UX3Ay7jQjFtsAdCHaJ
uUXvHVo28g5wNe4HXh1CjZYzoPMQoNfSzwrJdmDo+McVsvMmPBEnf8zTnqCXau3S
rmom6bNmRduw93596MBIfnxhUum5KQErWizapFFFg56oGOqD4h6jcZbyYO7xuoYp
qSg6sXnehEnqs0ZI5bcnXAKR3cG+u+xlfL1qR1cCAwEAAaOBjTCBijAJBgNVHRME
AjAAMBEGCWCGSAGG+EIBAQQEAwIFoDALBgNVHQ8EBAMCBaAwHQYDVR0lBBYwFAYI
KwYBBQUHAwIGCCsGAQUFBwMEMB0GA1UdDgQWBBQIildaesBcEKFlFEYSJQQzePQr
xTAfBgNVHSMEGDAWgBT3wtGWpsNipTFl08i3VZFtDT6JUDANBgkqhkiG9w0BAQsF
AAOCAQEAnKznye6AOiD6Z/DIJs9hfIld23t54+EUpIpGT3PmAkC+VOQpkS1VFh1S
RhDH2lfe7QXxKFSvcariNhcAcbcutxrPkbiJkC1NNme9xdZ4EhqtK/1QCMpfrPY9
6J+1iUHJ2sJ+3QrfSMD0zVy6FqMhOgwkM06ZtzAWc/HlpDd1kIL5ALBFsFgf35Vp
mhI6CAb1fLXCDLXP8oNDMosUxOZsEhRAzjWzKDA0yadSxKv49XJLaxzZr1yqZPkS
2/RvztyXHP5HWPBp45PDZGMlvoMDum7KiJNyBeLue8or0Q2zAJmUWwIan5rraysh
SEQeYl315PDOYLbH401fF+eTVHSxmw==
-----END CERTIFICATE-----
